target datalayout = "e-m:e-p270:32:32-p271:32:32-p272:64:64-i64:64-i128:128-f80:128-n8:16:32:64-S128"
target triple = "x86_64-pc-linux-gnu"

%struct.expert_field = type { i32, i32 }

@hf_uftp_rsablob_blobtype = internal global i32 0, align 4
@hf_uftp_rsablob_reserved = internal global i32 0, align 4
@hf_uftp_rsablob_modlen = internal global i32 0, align 4
@hf_uftp_rsablob_exponent = internal global i32 0, align 4
@hf_uftp_rsablob_modulus = internal global i32 0, align 4
@ett_uftp_rsablob = internal global i32 0, align 4
@ei_uftp_length_invalid = internal global %struct.expert_field zeroinitializer, align 4
@.str.427 = private unnamed_addr constant [19 x i8] c"Invalid length: %d\00", align 1
@.str.431 = private unnamed_addr constant [25 x i8] c"Invalid length, len = %d\00", align 1

; Function Attrs: null_pointer_is_valid sspstrong uwtable
define internal i32 @dissect_uftp_rsablob(ptr noundef %0, ptr noundef %1, ptr noundef %2, i32 noundef %3) #0 {
  %5 = alloca i32, align 4
  %6 = alloca ptr, align 8
  %7 = alloca ptr, align 8
  %8 = alloca ptr, align 8
  %9 = alloca i32, align 4
  %10 = alloca ptr, align 8
  %11 = alloca ptr, align 8
  %12 = alloca i32, align 4
  %13 = alloca i32, align 4
  %14 = alloca i32, align 4
  store ptr %0, ptr %6, align 8
  store ptr %1, ptr %7, align 8
  store ptr %2, ptr %8, align 8
  store i32 %3, ptr %9, align 4
  call void @llvm.lifetime.start.p0(i64 8, ptr %10) #5
  store ptr null, ptr %10, align 8
  call void @llvm.lifetime.start.p0(i64 8, ptr %11) #5
  store ptr null, ptr %11, align 8
  call void @llvm.lifetime.start.p0(i64 4, ptr %12) #5
  store i32 0, ptr %12, align 4
  call void @llvm.lifetime.start.p0(i64 4, ptr %13) #5
  %15 = load ptr, ptr %6, align 8
  %16 = call i32 @tvb_reported_length(ptr noundef %15)
  %17 = icmp ult i32 %16, 8
  br i1 %17, label %18, label %26

18:                                               ; preds = %4
  %19 = load ptr, ptr %8, align 8
  %20 = load ptr, ptr %7, align 8
  %21 = load ptr, ptr %6, align 8
  %22 = load i32, ptr %12, align 4
  %23 = load ptr, ptr %6, align 8
  %24 = call i32 @tvb_reported_length(ptr noundef %23)
  %25 = call ptr (ptr, ptr, ptr, ptr, i32, i32, ptr, ...) @proto_tree_add_expert_format(ptr noundef %19, ptr noundef %20, ptr noundef @ei_uftp_length_invalid, ptr noundef %21, i32 noundef %22, i32 noundef -1, ptr noundef @.str.427, i32 noundef %24)
  store i32 0, ptr %5, align 4
  store i32 1, ptr %14, align 4
  br label %90

26:                                               ; preds = %4
  %27 = load ptr, ptr %6, align 8
  %28 = call zeroext i16 @tvb_get_ntohs(ptr noundef %27, i32 noundef 2)
  %29 = zext i16 %28 to i32
  store i32 %29, ptr %13, align 4
  %30 = load ptr, ptr %6, align 8
  %31 = call i32 @tvb_reported_length(ptr noundef %30)
  %32 = load i32, ptr %13, align 4
  %33 = add i32 %32, 8
  %34 = icmp slt i32 %31, %33
  br i1 %34, label %35, label %43

35:                                               ; preds = %26
  %36 = load ptr, ptr %8, align 8
  %37 = load ptr, ptr %7, align 8
  %38 = load ptr, ptr %6, align 8
  %39 = load i32, ptr %12, align 4
  %40 = load ptr, ptr %6, align 8
  %41 = call i32 @tvb_reported_length(ptr noundef %40)
  %42 = call ptr (ptr, ptr, ptr, ptr, i32, i32, ptr, ...) @proto_tree_add_expert_format(ptr noundef %36, ptr noundef %37, ptr noundef @ei_uftp_length_invalid, ptr noundef %38, i32 noundef %39, i32 noundef -1, ptr noundef @.str.431, i32 noundef %41)
  store i32 0, ptr %5, align 4
  store i32 1, ptr %14, align 4
  br label %90

43:                                               ; preds = %26
  %44 = load ptr, ptr %8, align 8
  %45 = load i32, ptr %9, align 4
  %46 = load ptr, ptr %6, align 8
  %47 = load i32, ptr %12, align 4
  %48 = load i32, ptr %13, align 4
  %49 = add i32 8, %48
  %50 = call ptr @proto_tree_add_item(ptr noundef %44, i32 noundef %45, ptr noundef %46, i32 noundef %47, i32 noundef %49, i32 noundef 0)
  store ptr %50, ptr %10, align 8
  %51 = load ptr, ptr %10, align 8
  %52 = load i32, ptr @ett_uftp_rsablob, align 4
  %53 = call ptr @proto_item_add_subtree(ptr noundef %51, i32 noundef %52)
  store ptr %53, ptr %11, align 8
  %54 = load ptr, ptr %11, align 8
  %55 = load i32, ptr @hf_uftp_rsablob_blobtype, align 4
  %56 = load ptr, ptr %6, align 8
  %57 = load i32, ptr %12, align 4
  %58 = call ptr @proto_tree_add_item(ptr noundef %54, i32 noundef %55, ptr noundef %56, i32 noundef %57, i32 noundef 1, i32 noundef 0)
  %59 = load i32, ptr %12, align 4
  %60 = add i32 %59, 1
  store i32 %60, ptr %12, align 4
  %61 = load ptr, ptr %11, align 8
  %62 = load i32, ptr @hf_uftp_rsablob_reserved, align 4
  %63 = load ptr, ptr %6, align 8
  %64 = load i32, ptr %12, align 4
  %65 = call ptr @proto_tree_add_item(ptr noundef %61, i32 noundef %62, ptr noundef %63, i32 noundef %64, i32 noundef 1, i32 noundef 0)
  %66 = load i32, ptr %12, align 4
  %67 = add i32 %66, 1
  store i32 %67, ptr %12, align 4
  %68 = load ptr, ptr %11, align 8
  %69 = load i32, ptr @hf_uftp_rsablob_modlen, align 4
  %70 = load ptr, ptr %6, align 8
  %71 = load i32, ptr %12, align 4
  %72 = call ptr @proto_tree_add_item(ptr noundef %68, i32 noundef %69, ptr noundef %70, i32 noundef %71, i32 noundef 2, i32 noundef 0)
  %73 = load i32, ptr %12, align 4
  %74 = add i32 %73, 2
  store i32 %74, ptr %12, align 4
  %75 = load ptr, ptr %11, align 8
  %76 = load i32, ptr @hf_uftp_rsablob_exponent, align 4
  %77 = load ptr, ptr %6, align 8
  %78 = load i32, ptr %12, align 4
  %79 = call ptr @proto_tree_add_item(ptr noundef %75, i32 noundef %76, ptr noundef %77, i32 noundef %78, i32 noundef 4, i32 noundef 0)
  %80 = load i32, ptr %12, align 4
  %81 = add i32 %80, 4
  store i32 %81, ptr %12, align 4
  %82 = load ptr, ptr %11, align 8
  %83 = load i32, ptr @hf_uftp_rsablob_modulus, align 4
  %84 = load ptr, ptr %6, align 8
  %85 = load i32, ptr %12, align 4
  %86 = load i32, ptr %13, align 4
  %87 = call ptr @proto_tree_add_item(ptr noundef %82, i32 noundef %83, ptr noundef %84, i32 noundef %85, i32 noundef %86, i32 noundef 0)
  %88 = load i32, ptr %13, align 4
  %89 = add i32 8, %88
  store i32 %89, ptr %5, align 4
  store i32 1, ptr %14, align 4
  br label %90

90:                                               ; preds = %43, %35, %18
  call void @llvm.lifetime.end.p0(i64 4, ptr %13) #5
  call void @llvm.lifetime.end.p0(i64 4, ptr %12) #5
  call void @llvm.lifetime.end.p0(i64 8, ptr %11) #5
  call void @llvm.lifetime.end.p0(i64 8, ptr %10) #5
  %91 = load i32, ptr %5, align 4
  ret i32 %91
}